; Function Attrs: nounwind uwtable
define range(i32 0, 2) i32 @tls_process_server_done(ptr noundef %0, ptr noundef readonly captures(none) %1) local_unnamed_addr #0 {
  %3 = getelementptr i8, ptr %1, i64 8
  %.val = load i64, ptr %3, align 8, !tbaa !176
  %.not = icmp eq i64 %.val, 0
  br i1 %.not, label %5, label %4

4:                                                ; preds = %2
  tail call void @ERR_new() #8
  tail call void @ERR_set_debug(ptr noundef nonnull @.str, i32 noundef 2979, ptr noundef nonnull @__func__.tls_process_server_done) #8
  tail call void (ptr, i32, i32, ptr, ...) @ossl_statem_fatal(ptr noundef %0, i32 noundef 50, i32 noundef 159, ptr noundef null) #8
  br label %17

5:                                                ; preds = %2
  %6 = getelementptr inbounds nuw i8, ptr %0, i64 768
  %7 = load ptr, ptr %6, align 8, !tbaa !86
  %8 = getelementptr inbounds nuw i8, ptr %7, i64 28
  %9 = load i32, ptr %8, align 4, !tbaa !89
  %10 = and i32 %9, 32
  %.not6 = icmp eq i32 %10, 0
  br i1 %.not6, label %15, label %11

11:                                               ; preds = %5
  %12 = tail call i32 @ssl_srp_calc_a_param_intern(ptr noundef nonnull %0) #8
  %13 = icmp slt i32 %12, 1
  br i1 %13, label %14, label %15

14:                                               ; preds = %11
  tail call void @ERR_new() #8
  tail call void @ERR_set_debug(ptr noundef nonnull @.str, i32 noundef 2985, ptr noundef nonnull @__func__.tls_process_server_done) #8
  tail call void (ptr, i32, i32, ptr, ...) @ossl_statem_fatal(ptr noundef nonnull %0, i32 noundef 80, i32 noundef 361, ptr noundef null) #8
  br label %17

15:                                               ; preds = %11, %5
  %16 = tail call i32 @tls_process_initial_server_flight(ptr noundef nonnull %0)
  br label %17

17:                                               ; preds = %15, %14, %4
  %.0 = phi i32 [ 0, %4 ], [ 0, %14 ], [ %16, %15 ]
  ret i32 %.0
}